target datalayout = "e-m:e-p270:32:32-p271:32:32-p272:64:64-i64:64-i128:128-f80:128-n8:16:32:64-S128"
target triple = "x86_64-pc-linux-gnu"

%struct.eio_obj = type { i32, ptr, ptr, i8 }
%struct.sockaddr_storage = type { i16, [118 x i8], i64 }
%struct.io_operations = type { ptr, ptr, ptr, ptr, ptr, ptr, ptr, i32 }
%struct.slurm_msg = type { %struct.sockaddr_storage, ptr, i32, i32, i32, i8, i32, i8, i32, ptr, ptr, i32, ptr, ptr, i16, i8, i16, i16, %struct.forward, ptr, %struct.sockaddr_storage, ptr }
%struct.forward = type { %struct.slurm_node_alias_addrs_t, i16, i16, ptr, i32, i16, i16 }
%struct.slurm_node_alias_addrs_t = type { i64, ptr, ptr, i32, ptr }

@.str = private unnamed_addr constant [6 x i8] c"eio.c\00", align 1
@.str.7 = private unnamed_addr constant [10 x i8] c"%s: start\00", align 1
@__func__.eio_message_socket_accept = private unnamed_addr constant [26 x i8] c"eio_message_socket_accept\00", align 1
@.str.8 = private unnamed_addr constant [31 x i8] c"Error on msg accept socket: %m\00", align 1
@.str.9 = private unnamed_addr constant [39 x i8] c"%s: got message connection from %pA %d\00", align 1
@stdout = external global ptr, align 8
@.str.10 = private unnamed_addr constant [31 x i8] c"%s: slurm_receive_msg[%pA]: %m\00", align 1
@.str.11 = private unnamed_addr constant [18 x i8] c"%s: close(%d): %m\00", align 1

; Function Attrs: nounwind uwtable
define dso_local i32 @eio_message_socket_accept(ptr noundef %0, ptr noundef %1) #0 {
  %3 = alloca i32, align 4
  %4 = alloca ptr, align 8
  %5 = alloca ptr, align 8
  %6 = alloca i32, align 4
  %7 = alloca %struct.sockaddr_storage, align 8
  %8 = alloca ptr, align 8
  %9 = alloca i32, align 4
  store ptr %0, ptr %4, align 8
  store ptr %1, ptr %5, align 8
  call void @llvm.lifetime.start.p0(i64 4, ptr %6) #7
  call void @llvm.lifetime.start.p0(i64 128, ptr %7) #7
  call void @llvm.lifetime.start.p0(i64 8, ptr %8) #7
  store ptr null, ptr %8, align 8
  br label %10

10:                                               ; preds = %2
  br label %11

11:                                               ; preds = %10
  %12 = call i32 @get_log_level()
  %13 = icmp sge i32 %12, 7
  br i1 %13, label %14, label %15

14:                                               ; preds = %11
  call void (i32, ptr, ...) @log_var(i32 noundef 7, ptr noundef @.str.7, ptr noundef @__func__.eio_message_socket_accept)
  br label %15

15:                                               ; preds = %14, %11
  br label %16

16:                                               ; preds = %15
  br label %17

17:                                               ; preds = %16
  br label %18

18:                                               ; preds = %17
  br label %19

19:                                               ; preds = %18
  br label %20

20:                                               ; preds = %30, %19
  %21 = load ptr, ptr %4, align 8
  %22 = getelementptr inbounds nuw %struct.eio_obj, ptr %21, i32 0, i32 0
  %23 = load i32, ptr %22, align 8
  %24 = call i32 @slurm_accept_msg_conn(i32 noundef %23, ptr noundef %7)
  store i32 %24, ptr %6, align 4
  %25 = icmp slt i32 %24, 0
  br i1 %25, label %26, label %82

26:                                               ; preds = %20
  %27 = call ptr @__errno_location() #8
  %28 = load i32, ptr %27, align 4
  %29 = icmp eq i32 %28, 4
  br i1 %29, label %30, label %31

30:                                               ; preds = %26
  br label %20, !llvm.loop !12

31:                                               ; preds = %26
  %32 = call ptr @__errno_location() #8
  %33 = load i32, ptr %32, align 4
  %34 = icmp eq i32 %33, 11
  br i1 %34, label %43, label %35

35:                                               ; preds = %31
  %36 = call ptr @__errno_location() #8
  %37 = load i32, ptr %36, align 4
  %38 = icmp eq i32 %37, 103
  br i1 %38, label %43, label %39

39:                                               ; preds = %35
  %40 = call ptr @__errno_location() #8
  %41 = load i32, ptr %40, align 4
  %42 = icmp eq i32 %41, 11
  br i1 %42, label %43, label %44

43:                                               ; preds = %39, %35, %31
  store i32 0, ptr %3, align 4
  store i32 1, ptr %9, align 4
  br label %182

44:                                               ; preds = %39
  br label %45

45:                                               ; preds = %44
  %46 = call zeroext i1 @running_in_daemon()
  br i1 %46, label %47, label %49

47:                                               ; preds = %45
  %48 = call i32 (ptr, ...) @error(ptr noundef @.str.8)
  br label %60

49:                                               ; preds = %45
  br label %50

50:                                               ; preds = %49
  br label %51

51:                                               ; preds = %50
  %52 = call i32 @get_log_level()
  %53 = icmp sge i32 %52, 4
  br i1 %53, label %54, label %55

54:                                               ; preds = %51
  call void (i32, ptr, ...) @log_var(i32 noundef 4, ptr noundef @.str.8)
  br label %55

55:                                               ; preds = %54, %51
  br label %56

56:                                               ; preds = %55
  br label %57

57:                                               ; preds = %56
  br label %58

58:                                               ; preds = %57
  br label %59

59:                                               ; preds = %58
  br label %60

60:                                               ; preds = %59, %47
  br label %61

61:                                               ; preds = %60
  br label %62

62:                                               ; preds = %61
  %63 = call ptr @__errno_location() #8
  %64 = load i32, ptr %63, align 4
  %65 = icmp eq i32 %64, 24
  br i1 %65, label %78, label %66

66:                                               ; preds = %62
  %67 = call ptr @__errno_location() #8
  %68 = load i32, ptr %67, align 4
  %69 = icmp eq i32 %68, 23
  br i1 %69, label %78, label %70

70:                                               ; preds = %66
  %71 = call ptr @__errno_location() #8
  %72 = load i32, ptr %71, align 4
  %73 = icmp eq i32 %72, 105
  br i1 %73, label %78, label %74

74:                                               ; preds = %70
  %75 = call ptr @__errno_location() #8
  %76 = load i32, ptr %75, align 4
  %77 = icmp eq i32 %76, 12
  br i1 %77, label %78, label %79

78:                                               ; preds = %74, %70, %66, %62
  store i32 0, ptr %3, align 4
  store i32 1, ptr %9, align 4
  br label %182

79:                                               ; preds = %74
  %80 = load ptr, ptr %4, align 8
  %81 = getelementptr inbounds nuw %struct.eio_obj, ptr %80, i32 0, i32 3
  store i8 1, ptr %81, align 8
  store i32 0, ptr %3, align 4
  store i32 1, ptr %9, align 4
  br label %182

82:                                               ; preds = %20
  %83 = load i32, ptr %6, align 4
  call void @net_set_keep_alive(i32 noundef %83)
  %84 = load i32, ptr %6, align 4
  call void @fd_set_blocking(i32 noundef %84)
  br label %85

85:                                               ; preds = %82
  br label %86

86:                                               ; preds = %85
  %87 = call i32 @get_log_level()
  %88 = icmp sge i32 %87, 6
  br i1 %88, label %89, label %91

89:                                               ; preds = %86
  %90 = load i32, ptr %6, align 4
  call void (i32, ptr, ...) @log_var(i32 noundef 6, ptr noundef @.str.9, ptr noundef @__func__.eio_message_socket_accept, ptr noundef %7, i32 noundef %90)
  br label %91

91:                                               ; preds = %89, %86
  br label %92

92:                                               ; preds = %91
  br label %93

93:                                               ; preds = %92
  br label %94

94:                                               ; preds = %93
  br label %95

95:                                               ; preds = %94
  %96 = load ptr, ptr @stdout, align 8
  %97 = call i32 @fflush(ptr noundef %96)
  %98 = call ptr @slurm_xcalloc(i64 noundef 1, i64 noundef 424, i1 noundef zeroext true, i1 noundef zeroext false, ptr noundef @.str, i32 noundef 203, ptr noundef @__func__.eio_message_socket_accept)
  store ptr %98, ptr %8, align 8
  %99 = load ptr, ptr %8, align 8
  call void @slurm_msg_t_init(ptr noundef %99)
  br label %100

100:                                              ; preds = %114, %95
  %101 = load i32, ptr %6, align 4
  %102 = load ptr, ptr %8, align 8
  %103 = load ptr, ptr %4, align 8
  %104 = getelementptr inbounds nuw %struct.eio_obj, ptr %103, i32 0, i32 2
  %105 = load ptr, ptr %104, align 8
  %106 = getelementptr inbounds nuw %struct.io_operations, ptr %105, i32 0, i32 7
  %107 = load i32, ptr %106, align 8
  %108 = call i32 @slurm_receive_msg(i32 noundef %101, ptr noundef %102, i32 noundef %107)
  %109 = icmp ne i32 %108, 0
  br i1 %109, label %110, label %134

110:                                              ; preds = %100
  %111 = call ptr @__errno_location() #8
  %112 = load i32, ptr %111, align 4
  %113 = icmp eq i32 %112, 4
  br i1 %113, label %114, label %115

114:                                              ; preds = %110
  br label %100

115:                                              ; preds = %110
  br label %116

116:                                              ; preds = %115
  %117 = call zeroext i1 @running_in_daemon()
  br i1 %117, label %118, label %120

118:                                              ; preds = %116
  %119 = call i32 (ptr, ...) @error(ptr noundef @.str.10, ptr noundef @__func__.eio_message_socket_accept, ptr noundef %7)
  br label %131

120:                                              ; preds = %116
  br label %121

121:                                              ; preds = %120
  br label %122

122:                                              ; preds = %121
  %123 = call i32 @get_log_level()
  %124 = icmp sge i32 %123, 4
  br i1 %124, label %125, label %126

125:                                              ; preds = %122
  call void (i32, ptr, ...) @log_var(i32 noundef 4, ptr noundef @.str.10, ptr noundef @__func__.eio_message_socket_accept, ptr noundef %7)
  br label %126

126:                                              ; preds = %125, %122
  br label %127

127:                                              ; preds = %126
  br label %128

128:                                              ; preds = %127
  br label %129

129:                                              ; preds = %128
  br label %130

130:                                              ; preds = %129
  br label %131

131:                                              ; preds = %130, %118
  br label %132

132:                                              ; preds = %131
  br label %133

133:                                              ; preds = %132
  br label %144

134:                                              ; preds = %100
  %135 = load ptr, ptr %4, align 8
  %136 = getelementptr inbounds nuw %struct.eio_obj, ptr %135, i32 0, i32 2
  %137 = load ptr, ptr %136, align 8
  %138 = getelementptr inbounds nuw %struct.io_operations, ptr %137, i32 0, i32 2
  %139 = load ptr, ptr %138, align 8
  %140 = load ptr, ptr %4, align 8
  %141 = getelementptr inbounds nuw %struct.eio_obj, ptr %140, i32 0, i32 1
  %142 = load ptr, ptr %141, align 8
  %143 = load ptr, ptr %8, align 8
  call void %139(ptr noundef %142, ptr noundef %143)
  br label %144

144:                                              ; preds = %134, %133
  %145 = load ptr, ptr %8, align 8
  %146 = getelementptr inbounds nuw %struct.slurm_msg, ptr %145, i32 0, i32 11
  %147 = load i32, ptr %146, align 8
  %148 = icmp sge i32 %147, 2
  br i1 %148, label %149, label %180

149:                                              ; preds = %144
  %150 = load ptr, ptr %8, align 8
  %151 = getelementptr inbounds nuw %struct.slurm_msg, ptr %150, i32 0, i32 11
  %152 = load i32, ptr %151, align 8
  %153 = call i32 @close(i32 noundef %152)
  %154 = icmp slt i32 %153, 0
  br i1 %154, label %155, label %180

155:                                              ; preds = %149
  br label %156

156:                                              ; preds = %155
  %157 = call zeroext i1 @running_in_daemon()
  br i1 %157, label %158, label %163

158:                                              ; preds = %156
  %159 = load ptr, ptr %8, align 8
  %160 = getelementptr inbounds nuw %struct.slurm_msg, ptr %159, i32 0, i32 11
  %161 = load i32, ptr %160, align 8
  %162 = call i32 (ptr, ...) @error(ptr noundef @.str.11, ptr noundef @__func__.eio_message_socket_accept, i32 noundef %161)
  br label %177

163:                                              ; preds = %156
  br label %164

164:                                              ; preds = %163
  br label %165

165:                                              ; preds = %164
  %166 = call i32 @get_log_level()
  %167 = icmp sge i32 %166, 4
  br i1 %167, label %168, label %172

168:                                              ; preds = %165
  %169 = load ptr, ptr %8, align 8
  %170 = getelementptr inbounds nuw %struct.slurm_msg, ptr %169, i32 0, i32 11
  %171 = load i32, ptr %170, align 8
  call void (i32, ptr, ...) @log_var(i32 noundef 4, ptr noundef @.str.11, ptr noundef @__func__.eio_message_socket_accept, i32 noundef %171)
  br label %172

172:                                              ; preds = %168, %165
  br label %173

173:                                              ; preds = %172
  br label %174

174:                                              ; preds = %173
  br label %175

175:                                              ; preds = %174
  br label %176

176:                                              ; preds = %175
  br label %177

177:                                              ; preds = %176, %158
  br label %178

178:                                              ; preds = %177
  br label %179

179:                                              ; preds = %178
  br label %180

180:                                              ; preds = %179, %149, %144
  %181 = load ptr, ptr %8, align 8
  call void @slurm_free_msg(ptr noundef %181)
  store i32 0, ptr %3, align 4
  store i32 1, ptr %9, align 4
  br label %182

182:                                              ; preds = %180, %79, %78, %43
  call void @llvm.lifetime.end.p0(i64 8, ptr %8) #7
  call void @llvm.lifetime.end.p0(i64 128, ptr %7) #7
  call void @llvm.lifetime.end.p0(i64 4, ptr %6) #7
  %183 = load i32, ptr %3, align 4
  ret i32 %183
}