; Function Attrs: nounwind uwtable
define dso_local noundef i32 @eio_message_socket_accept(ptr noundef captures(none) %0, ptr readnone captures(none) %1) #0 {
  %3 = alloca %struct.sockaddr_storage, align 8
  call void @llvm.lifetime.start.p0(i64 128, ptr nonnull %3) #10
  %4 = tail call i32 @get_log_level() #10
  %5 = icmp sgt i32 %4, 6
  br i1 %5, label %6, label %.preheader

6:                                                ; preds = %2
  tail call void (i32, ptr, ...) @log_var(i32 noundef 7, ptr noundef nonnull @.str.7, ptr noundef nonnull @__func__.eio_message_socket_accept) #10
  br label %.preheader

.preheader:                                       ; preds = %6, %2
  br label %7

7:                                                ; preds = %.preheader, %11
  %8 = load i32, ptr %0, align 8
  %9 = call i32 @slurm_accept_msg_conn(i32 noundef %8, ptr noundef nonnull %3) #10
  %10 = icmp slt i32 %9, 0
  br i1 %10, label %11, label %26

11:                                               ; preds = %7
  %12 = tail call ptr @__errno_location() #11
  %13 = load i32, ptr %12, align 4
  switch i32 %13, label %14 [
    i32 4, label %7
    i32 11, label %.loopexit
    i32 103, label %.loopexit
  ]

14:                                               ; preds = %11
  %15 = call zeroext i1 @running_in_daemon() #10
  br i1 %15, label %16, label %18

16:                                               ; preds = %14
  %17 = call i32 (ptr, ...) @error(ptr noundef nonnull @.str.8) #10
  br label %22

18:                                               ; preds = %14
  %19 = call i32 @get_log_level() #10
  %20 = icmp sgt i32 %19, 3
  br i1 %20, label %21, label %22

21:                                               ; preds = %18
  call void (i32, ptr, ...) @log_var(i32 noundef 4, ptr noundef nonnull @.str.8) #10
  br label %22

22:                                               ; preds = %18, %21, %16
  %23 = load i32, ptr %12, align 4
  switch i32 %23, label %24 [
    i32 24, label %.loopexit
    i32 23, label %.loopexit
    i32 105, label %.loopexit
    i32 12, label %.loopexit
  ]

24:                                               ; preds = %22
  %25 = getelementptr inbounds nuw i8, ptr %0, i64 24
  store i8 1, ptr %25, align 8
  br label %.loopexit

26:                                               ; preds = %7
  call void @net_set_keep_alive(i32 noundef %9) #10
  call void @fd_set_blocking(i32 noundef %9) #10
  %27 = call i32 @get_log_level() #10
  %28 = icmp sgt i32 %27, 5
  br i1 %28, label %29, label %30

29:                                               ; preds = %26
  call void (i32, ptr, ...) @log_var(i32 noundef 6, ptr noundef nonnull @.str.9, ptr noundef nonnull @__func__.eio_message_socket_accept, ptr noundef nonnull %3, i32 noundef %9) #10
  br label %30

30:                                               ; preds = %29, %26
  %31 = load ptr, ptr @stdout, align 8
  %32 = call i32 @fflush(ptr noundef %31)
  %33 = call ptr @slurm_xcalloc(i64 noundef 1, i64 noundef 424, i1 noundef zeroext true, i1 noundef zeroext false, ptr noundef nonnull @.str, i32 noundef 203, ptr noundef nonnull @__func__.eio_message_socket_accept) #10
  call void @slurm_msg_t_init(ptr noundef %33) #10
  %34 = getelementptr inbounds nuw i8, ptr %0, i64 16
  br label %35

35:                                               ; preds = %40, %30
  %36 = load ptr, ptr %34, align 8
  %37 = getelementptr inbounds nuw i8, ptr %36, i64 56
  %38 = load i32, ptr %37, align 8
  %39 = call i32 @slurm_receive_msg(i32 noundef %9, ptr noundef %33, i32 noundef %38) #10
  %.not = icmp eq i32 %39, 0
  br i1 %.not, label %52, label %40

40:                                               ; preds = %35
  %41 = tail call ptr @__errno_location() #11
  %42 = load i32, ptr %41, align 4
  %43 = icmp eq i32 %42, 4
  br i1 %43, label %35, label %44

44:                                               ; preds = %40
  %45 = call zeroext i1 @running_in_daemon() #10
  br i1 %45, label %46, label %48

46:                                               ; preds = %44
  %47 = call i32 (ptr, ...) @error(ptr noundef nonnull @.str.10, ptr noundef nonnull @__func__.eio_message_socket_accept, ptr noundef nonnull %3) #10
  br label %58

48:                                               ; preds = %44
  %49 = call i32 @get_log_level() #10
  %50 = icmp sgt i32 %49, 3
  br i1 %50, label %51, label %58

51:                                               ; preds = %48
  call void (i32, ptr, ...) @log_var(i32 noundef 4, ptr noundef nonnull @.str.10, ptr noundef nonnull @__func__.eio_message_socket_accept, ptr noundef nonnull %3) #10
  br label %58

52:                                               ; preds = %35
  %53 = load ptr, ptr %34, align 8
  %54 = getelementptr inbounds nuw i8, ptr %53, i64 16
  %55 = load ptr, ptr %54, align 8
  %56 = getelementptr inbounds nuw i8, ptr %0, i64 8
  %57 = load ptr, ptr %56, align 8
  call void %55(ptr noundef %57, ptr noundef %33) #10
  br label %58

58:                                               ; preds = %46, %51, %48, %52
  %59 = getelementptr inbounds nuw i8, ptr %33, i64 184
  %60 = load i32, ptr %59, align 8
  %61 = icmp sgt i32 %60, 1
  br i1 %61, label %62, label %75

62:                                               ; preds = %58
  %63 = call i32 @close(i32 noundef %60) #10
  %64 = icmp slt i32 %63, 0
  br i1 %64, label %65, label %75

65:                                               ; preds = %62
  %66 = call zeroext i1 @running_in_daemon() #10
  br i1 %66, label %67, label %70

67:                                               ; preds = %65
  %68 = load i32, ptr %59, align 8
  %69 = call i32 (ptr, ...) @error(ptr noundef nonnull @.str.11, ptr noundef nonnull @__func__.eio_message_socket_accept, i32 noundef %68) #10
  br label %75

70:                                               ; preds = %65
  %71 = call i32 @get_log_level() #10
  %72 = icmp sgt i32 %71, 3
  br i1 %72, label %73, label %75

73:                                               ; preds = %70
  %74 = load i32, ptr %59, align 8
  call void (i32, ptr, ...) @log_var(i32 noundef 4, ptr noundef nonnull @.str.11, ptr noundef nonnull @__func__.eio_message_socket_accept, i32 noundef %74) #10
  br label %75

75:                                               ; preds = %67, %73, %70, %62, %58
  call void @slurm_free_msg(ptr noundef nonnull %33) #10
  br label %.loopexit

.loopexit:                                        ; preds = %11, %11, %22, %22, %22, %22, %75, %24
  call void @llvm.lifetime.end.p0(i64 128, ptr nonnull %3) #10
  ret i32 0
}